; Function Attrs: mustprogress uwtable
define hidden void @_ZNK3nla4core14canonize_monicERKNS_5monicE(ptr dead_on_unwind noalias writable sret(%"class.nla::monic_coeff") align 8 %0, ptr noundef nonnull readonly align 8 captures(none) dereferenceable(4736) %1, ptr noundef nonnull readonly align 8 captures(none) dereferenceable(34) %2) local_unnamed_addr #4 align 2 personality ptr @__gxx_personality_v0 {
  %4 = alloca %class.rational, align 8
  %5 = alloca %class.svector, align 8
  call void @llvm.lifetime.start.p0(i64 32, ptr nonnull %4) #27
  %6 = getelementptr inbounds nuw i8, ptr %4, i64 4
  %7 = getelementptr inbounds nuw i8, ptr %4, i64 8
  store ptr null, ptr %7, align 8, !tbaa !269
  %8 = getelementptr inbounds nuw i8, ptr %4, i64 16
  store i32 1, ptr %8, align 8, !tbaa !268
  %9 = getelementptr inbounds nuw i8, ptr %4, i64 20
  store i8 0, ptr %9, align 4
  %10 = getelementptr inbounds nuw i8, ptr %4, i64 24
  store ptr null, ptr %10, align 8, !tbaa !269
  %11 = load ptr, ptr @_ZN8rational13g_mpq_managerE, align 8, !tbaa !266
  store i32 1, ptr %4, align 8, !tbaa !268
  store i8 0, ptr %6, align 4
  call void @_ZN11mpz_managerILb1EE3delEPS0_R3mpz(ptr noundef nonnull align 8 dereferenceable(728) %11, ptr noundef nonnull align 8 dereferenceable(16) %8)
  store i32 1, ptr %8, align 8, !tbaa !268
  %12 = load i8, ptr %9, align 4
  %13 = and i8 %12, -2
  store i8 %13, ptr %9, align 4
  call void @llvm.lifetime.start.p0(i64 8, ptr nonnull %5) #27
  %14 = getelementptr inbounds nuw i8, ptr %2, i64 8
  invoke void @_ZNK3nla4core22reduce_monic_to_rootedERK7svectorIjjER8rational(ptr dead_on_unwind nonnull writable sret(%class.svector) align 8 %5, ptr noundef nonnull align 8 dereferenceable(4736) %1, ptr noundef nonnull align 8 dereferenceable(8) %14, ptr noundef nonnull align 8 dereferenceable(32) %4)
          to label %15 unwind label %27

15:                                               ; preds = %3
  invoke void @_ZN3nla11monic_coeffC2ERK7svectorIjjERK8rational(ptr noundef nonnull align 8 dereferenceable(40) %0, ptr noundef nonnull align 8 dereferenceable(8) %5, ptr noundef nonnull align 8 dereferenceable(32) %4)
          to label %16 unwind label %29

16:                                               ; preds = %15
  %17 = load ptr, ptr %5, align 8, !tbaa !188
  %.not.i.i = icmp eq ptr %17, null
  br i1 %.not.i.i, label %_ZN6vectorIjLb0EjED2Ev.exit, label %18

18:                                               ; preds = %16
  %19 = getelementptr inbounds i8, ptr %17, i64 -8
  invoke void @_ZN6memory10deallocateEPv(ptr noundef nonnull %19)
          to label %_ZN6vectorIjLb0EjED2Ev.exit unwind label %20

20:                                               ; preds = %18
  %21 = landingpad { ptr, i32 }
          catch ptr null
  %22 = extractvalue { ptr, i32 } %21, 0
  call void @__clang_call_terminate(ptr %22) #28
  unreachable

_ZN6vectorIjLb0EjED2Ev.exit:                      ; preds = %16, %18
  call void @llvm.lifetime.end.p0(i64 8, ptr nonnull %5) #27
  %23 = load ptr, ptr @_ZN8rational13g_mpq_managerE, align 8, !tbaa !266
  invoke void @_ZN11mpz_managerILb1EE3delEPS0_R3mpz(ptr noundef %23, ptr noundef nonnull align 8 dereferenceable(32) %4)
          to label %.noexc.i unwind label %24

.noexc.i:                                         ; preds = %_ZN6vectorIjLb0EjED2Ev.exit
  invoke void @_ZN11mpz_managerILb1EE3delEPS0_R3mpz(ptr noundef %23, ptr noundef nonnull align 8 dereferenceable(16) %8)
          to label %_ZN8rationalD2Ev.exit unwind label %24

24:                                               ; preds = %.noexc.i, %_ZN6vectorIjLb0EjED2Ev.exit
  %25 = landingpad { ptr, i32 }
          catch ptr null
  %26 = extractvalue { ptr, i32 } %25, 0
  call void @__clang_call_terminate(ptr %26) #28
  unreachable

_ZN8rationalD2Ev.exit:                            ; preds = %.noexc.i
  call void @llvm.lifetime.end.p0(i64 32, ptr nonnull %4) #27
  ret void

27:                                               ; preds = %3
  %28 = landingpad { ptr, i32 }
          cleanup
  br label %31

29:                                               ; preds = %15
  %30 = landingpad { ptr, i32 }
          cleanup
  call void @_ZN6vectorIjLb0EjED2Ev(ptr noundef nonnull align 8 dereferenceable(8) %5) #27
  br label %31

31:                                               ; preds = %29, %27
  %.pn = phi { ptr, i32 } [ %30, %29 ], [ %28, %27 ]
  call void @llvm.lifetime.end.p0(i64 8, ptr nonnull %5) #27
  call void @_ZN8rationalD2Ev(ptr noundef nonnull align 8 dereferenceable(32) %4) #27
  call void @llvm.lifetime.end.p0(i64 32, ptr nonnull %4) #27
  resume { ptr, i32 } %.pn
}